; Function Attrs: mustprogress nounwind uwtable
define internal fastcc void @_ZN4node12_GLOBAL__N_111ZlibContext11ResetStreamEv(ptr noalias nocapture writeonly align 8 %agg.result, ptr noundef nonnull align 8 dereferenceable(224) %this) unnamed_addr #3 align 2 {
entry:
  %call = tail call fastcc noundef zeroext i1 @_ZN4node12_GLOBAL__N_111ZlibContext8InitZlibEv(ptr noundef nonnull align 8 dereferenceable(224) %this)
  %err_ = getelementptr inbounds i8, ptr %this, i64 52
  %0 = load i32, ptr %err_, align 4
  %cmp.not = icmp ne i32 %0, 0
  %or.cond.not = select i1 %call, i1 %cmp.not, i1 false
  br i1 %or.cond.not, label %if.then, label %if.end

if.then:                                          ; preds = %entry
  %1 = getelementptr inbounds i8, ptr %this, i64 160
  %this.val1 = load ptr, ptr %1, align 8
  %cmp.not.i = icmp eq ptr %this.val1, null
  %spec.select.i = select i1 %cmp.not.i, ptr @.str.178, ptr %this.val1
  %switch.tableidx = add i32 %0, 6
  %2 = icmp ult i32 %switch.tableidx, 9
  br i1 %2, label %switch.lookup, label %_ZNK4node12_GLOBAL__N_111ZlibContext15ErrorForMessageEPKc.exit

switch.lookup:                                    ; preds = %if.then
  %3 = zext nneg i32 %switch.tableidx to i64
  %switch.gep = getelementptr inbounds [9 x ptr], ptr @switch.table._ZN4node12_GLOBAL__N_111ZlibContext13SetDictionaryEv, i64 0, i64 %3
  %switch.load = load ptr, ptr %switch.gep, align 8
  br label %_ZNK4node12_GLOBAL__N_111ZlibContext15ErrorForMessageEPKc.exit

_ZNK4node12_GLOBAL__N_111ZlibContext15ErrorForMessageEPKc.exit: ; preds = %if.then, %switch.lookup
  %retval.0.i.i = phi ptr [ %switch.load, %switch.lookup ], [ @.str.174, %if.then ]
  store ptr %spec.select.i, ptr %agg.result, align 8, !alias.scope !42
  %code3.i.i = getelementptr inbounds i8, ptr %agg.result, i64 8
  store ptr %retval.0.i.i, ptr %code3.i.i, align 8, !alias.scope !42
  %err4.i.i = getelementptr inbounds i8, ptr %agg.result, i64 16
  store i32 %0, ptr %err4.i.i, align 8, !alias.scope !42
  br label %return

if.end:                                           ; preds = %entry
  store i32 0, ptr %err_, align 4
  %mode_ = getelementptr inbounds i8, ptr %this, i64 68
  %4 = load i32, ptr %mode_, align 4
  switch i32 %4, label %if.end12 [
    i32 1, label %sw.bb
    i32 5, label %sw.bb
    i32 3, label %sw.bb
    i32 2, label %sw.bb5
    i32 6, label %sw.bb5
    i32 4, label %sw.bb5
  ]

sw.bb:                                            ; preds = %if.end, %if.end, %if.end
  %strm_ = getelementptr inbounds i8, ptr %this, i64 112
  %call3 = tail call i32 @deflateReset(ptr noundef nonnull %strm_) #22
  br label %sw.epilog

sw.bb5:                                           ; preds = %if.end, %if.end, %if.end
  %strm_6 = getelementptr inbounds i8, ptr %this, i64 112
  %call7 = tail call i32 @inflateReset(ptr noundef nonnull %strm_6) #22
  br label %sw.epilog

sw.epilog:                                        ; preds = %sw.bb5, %sw.bb
  %5 = phi i32 [ %call7, %sw.bb5 ], [ %call3, %sw.bb ]
  store i32 %5, ptr %err_, align 4
  %cmp10.not = icmp eq i32 %5, 0
  br i1 %cmp10.not, label %if.end12, label %if.then11

if.then11:                                        ; preds = %sw.epilog
  %6 = getelementptr inbounds i8, ptr %this, i64 160
  %this.val3 = load ptr, ptr %6, align 8
  %cmp.not.i4 = icmp eq ptr %this.val3, null
  %spec.select.i5 = select i1 %cmp.not.i4, ptr @.str.179, ptr %this.val3
  %switch.tableidx21 = add i32 %5, 6
  %7 = icmp ult i32 %switch.tableidx21, 9
  br i1 %7, label %switch.lookup20, label %_ZNK4node12_GLOBAL__N_111ZlibContext15ErrorForMessageEPKc.exit18

switch.lookup20:                                  ; preds = %if.then11
  %8 = zext nneg i32 %switch.tableidx21 to i64
  %switch.gep22 = getelementptr inbounds [9 x ptr], ptr @switch.table._ZN4node12_GLOBAL__N_111ZlibContext13SetDictionaryEv, i64 0, i64 %8
  %switch.load23 = load ptr, ptr %switch.gep22, align 8
  br label %_ZNK4node12_GLOBAL__N_111ZlibContext15ErrorForMessageEPKc.exit18

_ZNK4node12_GLOBAL__N_111ZlibContext15ErrorForMessageEPKc.exit18: ; preds = %if.then11, %switch.lookup20
  %retval.0.i.i7 = phi ptr [ %switch.load23, %switch.lookup20 ], [ @.str.174, %if.then11 ]
  store ptr %spec.select.i5, ptr %agg.result, align 8, !alias.scope !45
  %code3.i.i8 = getelementptr inbounds i8, ptr %agg.result, i64 8
  store ptr %retval.0.i.i7, ptr %code3.i.i8, align 8, !alias.scope !45
  %err4.i.i9 = getelementptr inbounds i8, ptr %agg.result, i64 16
  store i32 %5, ptr %err4.i.i9, align 8, !alias.scope !45
  br label %return

if.end12:                                         ; preds = %if.end, %sw.epilog
  tail call fastcc void @_ZN4node12_GLOBAL__N_111ZlibContext13SetDictionaryEv(ptr noalias align 8 %agg.result, ptr noundef nonnull align 8 dereferenceable(224) %this)
  br label %return

return:                                           ; preds = %if.end12, %_ZNK4node12_GLOBAL__N_111ZlibContext15ErrorForMessageEPKc.exit18, %_ZNK4node12_GLOBAL__N_111ZlibContext15ErrorForMessageEPKc.exit
  ret void
}